target datalayout = "e-m:e-p270:32:32-p271:32:32-p272:64:64-i64:64-i128:128-f80:128-n8:16:32:64-S128"
target triple = "x86_64-pc-linux-gnu"

%"class.arrow::internal::BinaryBitBlockCounter" = type { ptr, i64, ptr, i64, i64 }
%"struct.arrow::internal::BitBlockCount" = type { i16, i16 }

@_ZN5arrow4util8internalL14kNonNullFillerE = internal constant i8 0, align 1

; Function Attrs: inlinehint mustprogress nounwind uwtable
define linkonce_odr noundef ptr @_ZN5arrow4util11MakeNonNullIKhEEPT_S4_(ptr noundef %0) #5 comdat {
  %2 = alloca ptr, align 8
  %3 = alloca ptr, align 8
  store ptr %0, ptr %3, align 8, !tbaa !3
  %4 = load ptr, ptr %3, align 8, !tbaa !3
  %5 = icmp ne ptr %4, null
  %6 = xor i1 %5, true
  %7 = xor i1 %6, true
  %8 = zext i1 %7 to i64
  %9 = call i64 @llvm.expect.i64(i64 %8, i64 1)
  %10 = icmp ne i64 %9, 0
  br i1 %10, label %11, label %13

11:                                               ; preds = %1
  %12 = load ptr, ptr %3, align 8, !tbaa !3
  store ptr %12, ptr %2, align 8
  br label %14

13:                                               ; preds = %1
  store ptr @_ZN5arrow4util8internalL14kNonNullFillerE, ptr %2, align 8
  br label %14

14:                                               ; preds = %13, %11
  %15 = load ptr, ptr %2, align 8
  ret ptr %15
}

; Function Attrs: mustprogress uwtable
define linkonce_odr i32 @_ZN5arrow8internal21BinaryBitBlockCounter11NextAndWordEv(ptr noundef nonnull align 8 dereferenceable(40) %0) #0 comdat align 2 {
  %2 = alloca %"struct.arrow::internal::BitBlockCount", align 2
  %3 = alloca ptr, align 8
  store ptr %0, ptr %3, align 8, !tbaa !38
  %4 = load ptr, ptr %3, align 8
  %5 = call i32 @_ZN5arrow8internal21BinaryBitBlockCounter8NextWordINS0_6detail11BitBlockAndEEENS0_13BitBlockCountEv(ptr noundef nonnull align 8 dereferenceable(40) %4)
  store i32 %5, ptr %2, align 2
  %6 = load i32, ptr %2, align 2
  ret i32 %6
}

; Function Attrs: mustprogress uwtable
define linkonce_odr void @_ZN5arrow8internal21BinaryBitBlockCounterC2EPKhlS3_ll(ptr noundef nonnull align 8 dereferenceable(40) %0, ptr noundef %1, i64 noundef %2, ptr noundef %3, i64 noundef %4, i64 noundef %5) unnamed_addr #0 comdat align 2 {
  %7 = alloca ptr, align 8
  %8 = alloca ptr, align 8
  %9 = alloca i64, align 8
  %10 = alloca ptr, align 8
  %11 = alloca i64, align 8
  %12 = alloca i64, align 8
  store ptr %0, ptr %7, align 8, !tbaa !38
  store ptr %1, ptr %8, align 8, !tbaa !3
  store i64 %2, ptr %9, align 8, !tbaa !8
  store ptr %3, ptr %10, align 8, !tbaa !3
  store i64 %4, ptr %11, align 8, !tbaa !8
  store i64 %5, ptr %12, align 8, !tbaa !8
  %13 = load ptr, ptr %7, align 8
  %14 = getelementptr inbounds nuw %"class.arrow::internal::BinaryBitBlockCounter", ptr %13, i32 0, i32 0
  %15 = load ptr, ptr %8, align 8, !tbaa !3
  %16 = call noundef ptr @_ZN5arrow4util11MakeNonNullIKhEEPT_S4_(ptr noundef %15)
  %17 = load i64, ptr %9, align 8, !tbaa !8
  %18 = sdiv i64 %17, 8
  %19 = getelementptr inbounds i8, ptr %16, i64 %18
  store ptr %19, ptr %14, align 8, !tbaa !40
  %20 = getelementptr inbounds nuw %"class.arrow::internal::BinaryBitBlockCounter", ptr %13, i32 0, i32 1
  %21 = load i64, ptr %9, align 8, !tbaa !8
  %22 = srem i64 %21, 8
  store i64 %22, ptr %20, align 8, !tbaa !42
  %23 = getelementptr inbounds nuw %"class.arrow::internal::BinaryBitBlockCounter", ptr %13, i32 0, i32 2
  %24 = load ptr, ptr %10, align 8, !tbaa !3
  %25 = call noundef ptr @_ZN5arrow4util11MakeNonNullIKhEEPT_S4_(ptr noundef %24)
  %26 = load i64, ptr %11, align 8, !tbaa !8
  %27 = sdiv i64 %26, 8
  %28 = getelementptr inbounds i8, ptr %25, i64 %27
  store ptr %28, ptr %23, align 8, !tbaa !43
  %29 = getelementptr inbounds nuw %"class.arrow::internal::BinaryBitBlockCounter", ptr %13, i32 0, i32 3
  %30 = load i64, ptr %11, align 8, !tbaa !8
  %31 = srem i64 %30, 8
  store i64 %31, ptr %29, align 8, !tbaa !44
  %32 = getelementptr inbounds nuw %"class.arrow::internal::BinaryBitBlockCounter", ptr %13, i32 0, i32 4
  %33 = load i64, ptr %12, align 8, !tbaa !8
  store i64 %33, ptr %32, align 8, !tbaa !45
  ret void
}

; Function Attrs: mustprogress uwtable
define noundef i64 @_ZN5arrow8internal15CountAndSetBitsEPKhlS2_ll(ptr noundef %0, i64 noundef %1, ptr noundef %2, i64 noundef %3, i64 noundef %4) #0 {
  %6 = alloca ptr, align 8
  %7 = alloca i64, align 8
  %8 = alloca ptr, align 8
  %9 = alloca i64, align 8
  %10 = alloca i64, align 8
  %11 = alloca %"class.arrow::internal::BinaryBitBlockCounter", align 8
  %12 = alloca i64, align 8
  %13 = alloca %"struct.arrow::internal::BitBlockCount", align 2
  %14 = alloca i32, align 4
  store ptr %0, ptr %6, align 8, !tbaa !3
  store i64 %1, ptr %7, align 8, !tbaa !8
  store ptr %2, ptr %8, align 8, !tbaa !3
  store i64 %3, ptr %9, align 8, !tbaa !8
  store i64 %4, ptr %10, align 8, !tbaa !8
  call void @llvm.lifetime.start.p0(i64 40, ptr %11) #18
  %15 = load ptr, ptr %6, align 8, !tbaa !3
  %16 = load i64, ptr %7, align 8, !tbaa !8
  %17 = load ptr, ptr %8, align 8, !tbaa !3
  %18 = load i64, ptr %9, align 8, !tbaa !8
  %19 = load i64, ptr %10, align 8, !tbaa !8
  call void @_ZN5arrow8internal21BinaryBitBlockCounterC2EPKhlS3_ll(ptr noundef nonnull align 8 dereferenceable(40) %11, ptr noundef %15, i64 noundef %16, ptr noundef %17, i64 noundef %18, i64 noundef %19)
  call void @llvm.lifetime.start.p0(i64 8, ptr %12) #18
  store i64 0, ptr %12, align 8, !tbaa !8
  br label %20

20:                                               ; preds = %36, %5
  br label %21

21:                                               ; preds = %20
  call void @llvm.lifetime.start.p0(i64 4, ptr %13) #18
  %22 = call i32 @_ZN5arrow8internal21BinaryBitBlockCounter11NextAndWordEv(ptr noundef nonnull align 8 dereferenceable(40) %11)
  store i32 %22, ptr %13, align 2
  %23 = getelementptr inbounds nuw %"struct.arrow::internal::BitBlockCount", ptr %13, i32 0, i32 0
  %24 = load i16, ptr %23, align 2, !tbaa !33
  %25 = sext i16 %24 to i32
  %26 = icmp eq i32 %25, 0
  br i1 %26, label %27, label %28

27:                                               ; preds = %21
  store i32 3, ptr %14, align 4
  br label %34

28:                                               ; preds = %21
  %29 = getelementptr inbounds nuw %"struct.arrow::internal::BitBlockCount", ptr %13, i32 0, i32 1
  %30 = load i16, ptr %29, align 2, !tbaa !36
  %31 = sext i16 %30 to i64
  %32 = load i64, ptr %12, align 8, !tbaa !8
  %33 = add nsw i64 %32, %31
  store i64 %33, ptr %12, align 8, !tbaa !8
  store i32 0, ptr %14, align 4
  br label %34

34:                                               ; preds = %28, %27
  call void @llvm.lifetime.end.p0(i64 4, ptr %13) #18
  %35 = load i32, ptr %14, align 4
  switch i32 %35, label %39 [
    i32 0, label %36
    i32 3, label %37
  ]

36:                                               ; preds = %34
  br label %20, !llvm.loop !37

37:                                               ; preds = %34
  %38 = load i64, ptr %12, align 8, !tbaa !8
  store i32 1, ptr %14, align 4
  call void @llvm.lifetime.end.p0(i64 8, ptr %12) #18
  call void @llvm.lifetime.end.p0(i64 40, ptr %11) #18
  ret i64 %38

39:                                               ; preds = %34
  unreachable
}