; Function Attrs: mustprogress uwtable
define noundef i64 @_ZN5arrow8internal15CountAndSetBitsEPKhlS2_ll(ptr noundef %0, i64 noundef %1, ptr noundef %2, i64 noundef %3, i64 noundef %4) local_unnamed_addr #3 {
  %6 = alloca %"class.arrow::internal::BinaryBitBlockCounter", align 8
  call void @llvm.lifetime.start.p0(i64 40, ptr nonnull %6) #23
  %.not.i.i = icmp eq ptr %0, null
  %_ZN5arrow4util8internalL14kNonNullFillerE..i.i = select i1 %.not.i.i, ptr @_ZN5arrow4util8internalL14kNonNullFillerE, ptr %0, !prof !15
  %7 = sdiv i64 %1, 8
  %8 = getelementptr inbounds i8, ptr %_ZN5arrow4util8internalL14kNonNullFillerE..i.i, i64 %7
  store ptr %8, ptr %6, align 8, !tbaa !16
  %9 = getelementptr inbounds nuw i8, ptr %6, i64 8
  %10 = srem i64 %1, 8
  store i64 %10, ptr %9, align 8, !tbaa !20
  %11 = getelementptr inbounds nuw i8, ptr %6, i64 16
  %.not.i7.i = icmp eq ptr %2, null
  %_ZN5arrow4util8internalL14kNonNullFillerE..i8.i = select i1 %.not.i7.i, ptr @_ZN5arrow4util8internalL14kNonNullFillerE, ptr %2, !prof !15
  %12 = sdiv i64 %3, 8
  %13 = getelementptr inbounds i8, ptr %_ZN5arrow4util8internalL14kNonNullFillerE..i8.i, i64 %12
  store ptr %13, ptr %11, align 8, !tbaa !21
  %14 = getelementptr inbounds nuw i8, ptr %6, i64 24
  %15 = srem i64 %3, 8
  store i64 %15, ptr %14, align 8, !tbaa !22
  %16 = getelementptr inbounds nuw i8, ptr %6, i64 32
  store i64 %4, ptr %16, align 8, !tbaa !23
  br label %17

17:                                               ; preds = %17, %5
  %.07 = phi i64 [ 0, %5 ], [ %21, %17 ]
  %18 = call i32 @_ZN5arrow8internal21BinaryBitBlockCounter8NextWordINS0_6detail11BitBlockAndEEENS0_13BitBlockCountEv(ptr noundef nonnull align 8 dereferenceable(40) %6)
  %sext.mask = and i32 %18, 65535
  %19 = icmp eq i32 %sext.mask, 0
  %.sroa.4.0.extract.shift = lshr i32 %18, 16
  %.sroa.4.0.extract.trunc = zext nneg i32 %.sroa.4.0.extract.shift to i64
  %sext = shl nuw i64 %.sroa.4.0.extract.trunc, 48
  %20 = ashr exact i64 %sext, 48
  %21 = add nsw i64 %20, %.07
  br i1 %19, label %22, label %17

22:                                               ; preds = %17
  call void @llvm.lifetime.end.p0(i64 40, ptr nonnull %6) #23
  ret i64 %.07
}